; Function Attrs: mustprogress uwtable
define void @_ZN22MLThreadSafeMemoryInfoC2El(ptr noundef nonnull align 8 dereferenceable(32) %0, i64 noundef %1) unnamed_addr #1 align 2 personality ptr @__gxx_personality_v0 {
  %3 = getelementptr inbounds i8, ptr %0, i64 8
  store i64 %1, ptr %3, align 8
  %4 = getelementptr inbounds i8, ptr %0, i64 16
  store i64 %1, ptr %4, align 8
  store ptr getelementptr inbounds ({ [9 x ptr] }, ptr @_ZTV22MLThreadSafeMemoryInfo, i64 0, i32 0, i64 2), ptr %0, align 8
  %5 = getelementptr inbounds i8, ptr %0, i64 24
  tail call void @_ZN14QReadWriteLockC1ENS_13RecursionModeE(ptr noundef nonnull align 8 dereferenceable(8) %5, i32 noundef 1)
  ret void
}